; Function Attrs: mustprogress uwtable
define hidden void @_ZN4cvc58internal6theory5arith8PolyNorm8subtractERKS3_(ptr noundef nonnull align 8 dereferenceable(48) %0, ptr noundef nonnull readonly align 8 captures(address) dereferenceable(48) %1) local_unnamed_addr #3 align 2 personality ptr @__gxx_personality_v0 {
  %3 = alloca %"class.cvc5::internal::NodeTemplate", align 8
  %4 = getelementptr inbounds nuw i8, ptr %1, i64 24
  %5 = load ptr, ptr %4, align 8, !tbaa !37
  %6 = getelementptr inbounds nuw i8, ptr %1, i64 8
  %.not10 = icmp eq ptr %5, %6
  br i1 %.not10, label %._crit_edge, label %.lr.ph

._crit_edge:                                      ; preds = %.lr.ph, %2
  ret void

.lr.ph:                                           ; preds = %2, %.lr.ph
  %.sroa.07.011 = phi ptr [ %10, %.lr.ph ], [ %5, %2 ]
  %7 = getelementptr inbounds nuw i8, ptr %.sroa.07.011, i64 32
  %8 = load ptr, ptr %7, align 8, !tbaa !22
  store ptr %8, ptr %3, align 8, !tbaa !11
  %9 = getelementptr inbounds nuw i8, ptr %.sroa.07.011, i64 40
  call void @_ZN4cvc58internal6theory5arith8PolyNorm11addMonomialENS0_12NodeTemplateILb0EEERKNS0_8RationalEb(ptr noundef nonnull align 8 dereferenceable(48) %0, ptr noundef nonnull %3, ptr noundef nonnull align 8 dereferenceable(32) %9, i1 noundef zeroext true)
  %10 = tail call noundef ptr @_ZSt18_Rb_tree_incrementPKSt18_Rb_tree_node_base(ptr noundef nonnull %.sroa.07.011) #28
  %.not = icmp eq ptr %10, %6
  br i1 %.not, label %._crit_edge, label %.lr.ph
}